; Function Attrs: mustprogress nounwind uwtable
define internal void @_ZN12_GLOBAL__N_127StmtProfilerWithoutPointers19VisitIdentifierInfoEPKN5clang14IdentifierInfoE(ptr noundef nonnull readonly align 8 captures(none) dereferenceable(32) %0, ptr noundef %1) unnamed_addr #0 align 2 {
  %3 = getelementptr inbounds nuw i8, ptr %0, i64 8
  %4 = load ptr, ptr %3, align 8
  %5 = icmp ne ptr %1, null
  %6 = tail call noundef i64 @_ZNK4llvm15SmallVectorBaseIjE4sizeEv(ptr noundef nonnull align 8 dereferenceable(144) %4) #11
  %7 = add i64 %6, 1
  %8 = tail call noundef i64 @_ZNK4llvm15SmallVectorBaseIjE8capacityEv(ptr noundef nonnull align 8 dereferenceable(144) %4) #11
  %.not.i.i.i.i.i = icmp ugt i64 %7, %8
  br i1 %.not.i.i.i.i.i, label %9, label %_ZN4llvm16FoldingSetNodeID10AddBooleanEb.exit

9:                                                ; preds = %2
  %10 = getelementptr inbounds nuw i8, ptr %4, i64 16
  tail call void @_ZN4llvm15SmallVectorBaseIjE8grow_podEPvmm(ptr noundef nonnull align 8 dereferenceable(144) %4, ptr noundef nonnull %10, i64 noundef %7, i64 noundef 4) #11
  br label %_ZN4llvm16FoldingSetNodeID10AddBooleanEb.exit

_ZN4llvm16FoldingSetNodeID10AddBooleanEb.exit:    ; preds = %2, %9
  %11 = zext i1 %5 to i32
  %12 = load ptr, ptr %4, align 8
  %13 = tail call noundef i64 @_ZNK4llvm15SmallVectorBaseIjE4sizeEv(ptr noundef nonnull align 8 dereferenceable(144) %4) #11
  %14 = getelementptr inbounds i32, ptr %12, i64 %13
  store i32 %11, ptr %14, align 1
  %15 = tail call noundef i64 @_ZNK4llvm15SmallVectorBaseIjE4sizeEv(ptr noundef nonnull align 8 dereferenceable(144) %4) #11
  %16 = add i64 %15, 1
  tail call void @_ZN4llvm15SmallVectorBaseIjE8set_sizeEm(ptr noundef nonnull align 8 dereferenceable(144) %4, i64 noundef %16) #11
  br i1 %5, label %17, label %20

17:                                               ; preds = %_ZN4llvm16FoldingSetNodeID10AddBooleanEb.exit
  %18 = getelementptr inbounds nuw i8, ptr %0, i64 24
  %19 = load ptr, ptr %18, align 8
  tail call void @_ZN5clang7ODRHash17AddIdentifierInfoEPKNS_14IdentifierInfoE(ptr noundef nonnull align 8 dereferenceable(320) %19, ptr noundef nonnull %1) #11
  br label %20

20:                                               ; preds = %17, %_ZN4llvm16FoldingSetNodeID10AddBooleanEb.exit
  ret void
}